target datalayout = "e-m:e-p270:32:32-p271:32:32-p272:64:64-i64:64-i128:128-f80:128-n8:16:32:64-S128"
target triple = "x86_64-pc-linux-gnu"

%struct.SurfaceDataRasInfo = type { %struct.SurfaceDataBounds, ptr, i32, i32, i32, i32, ptr, ptr, ptr, ptr, ptr, ptr, i32, %union.anon.0 }
%struct.SurfaceDataBounds = type { i32, i32, i32, i32 }
%union.anon.0 = type { ptr, [56 x i8] }

; Function Attrs: nounwind uwtable
define hidden void @IntRgbBilinearTransformHelper(ptr noundef %0, ptr noundef %1, i32 noundef %2, i64 noundef %3, i64 noundef %4, i64 noundef %5, i64 noundef %6) #1 {
  %8 = alloca ptr, align 8
  %9 = alloca ptr, align 8
  %10 = alloca i32, align 4
  %11 = alloca i64, align 8
  %12 = alloca i64, align 8
  %13 = alloca i64, align 8
  %14 = alloca i64, align 8
  %15 = alloca i32, align 4
  %16 = alloca i32, align 4
  %17 = alloca i32, align 4
  %18 = alloca i32, align 4
  %19 = alloca i32, align 4
  %20 = alloca ptr, align 8
  %21 = alloca i32, align 4
  %22 = alloca i32, align 4
  %23 = alloca i32, align 4
  %24 = alloca i32, align 4
  %25 = alloca i32, align 4
  %26 = alloca ptr, align 8
  store ptr %0, ptr %8, align 8
  store ptr %1, ptr %9, align 8
  store i32 %2, ptr %10, align 4
  store i64 %3, ptr %11, align 8
  store i64 %4, ptr %12, align 8
  store i64 %5, ptr %13, align 8
  store i64 %6, ptr %14, align 8
  %27 = load ptr, ptr %8, align 8
  %28 = getelementptr inbounds %struct.SurfaceDataRasInfo, ptr %27, i32 0, i32 4
  %29 = load i32, ptr %28, align 8
  store i32 %29, ptr %15, align 4
  %30 = load ptr, ptr %9, align 8
  %31 = load i32, ptr %10, align 4
  %32 = mul nsw i32 %31, 4
  %33 = sext i32 %32 to i64
  %34 = getelementptr inbounds i32, ptr %30, i64 %33
  store ptr %34, ptr %20, align 8
  %35 = load ptr, ptr %8, align 8
  %36 = getelementptr inbounds %struct.SurfaceDataRasInfo, ptr %35, i32 0, i32 0
  %37 = getelementptr inbounds %struct.SurfaceDataBounds, ptr %36, i32 0, i32 0
  %38 = load i32, ptr %37, align 8
  store i32 %38, ptr %16, align 4
  %39 = load ptr, ptr %8, align 8
  %40 = getelementptr inbounds %struct.SurfaceDataRasInfo, ptr %39, i32 0, i32 0
  %41 = getelementptr inbounds %struct.SurfaceDataBounds, ptr %40, i32 0, i32 2
  %42 = load i32, ptr %41, align 8
  %43 = load i32, ptr %16, align 4
  %44 = sub nsw i32 %42, %43
  store i32 %44, ptr %18, align 4
  %45 = load ptr, ptr %8, align 8
  %46 = getelementptr inbounds %struct.SurfaceDataRasInfo, ptr %45, i32 0, i32 0
  %47 = getelementptr inbounds %struct.SurfaceDataBounds, ptr %46, i32 0, i32 1
  %48 = load i32, ptr %47, align 4
  store i32 %48, ptr %17, align 4
  %49 = load ptr, ptr %8, align 8
  %50 = getelementptr inbounds %struct.SurfaceDataRasInfo, ptr %49, i32 0, i32 0
  %51 = getelementptr inbounds %struct.SurfaceDataBounds, ptr %50, i32 0, i32 3
  %52 = load i32, ptr %51, align 4
  %53 = load i32, ptr %17, align 4
  %54 = sub nsw i32 %52, %53
  store i32 %54, ptr %19, align 4
  %55 = load i64, ptr %11, align 8
  %56 = sub nsw i64 %55, 2147483648
  store i64 %56, ptr %11, align 8
  %57 = load i64, ptr %13, align 8
  %58 = sub nsw i64 %57, 2147483648
  store i64 %58, ptr %13, align 8
  br label %59

59:                                               ; preds = %63, %7
  %60 = load ptr, ptr %9, align 8
  %61 = load ptr, ptr %20, align 8
  %62 = icmp ult ptr %60, %61
  br i1 %62, label %63, label %165

63:                                               ; preds = %59
  %64 = load i64, ptr %11, align 8
  %65 = ashr i64 %64, 32
  %66 = trunc i64 %65 to i32
  store i32 %66, ptr %21, align 4
  %67 = load i64, ptr %13, align 8
  %68 = ashr i64 %67, 32
  %69 = trunc i64 %68 to i32
  store i32 %69, ptr %22, align 4
  %70 = load i32, ptr %21, align 4
  %71 = add nsw i32 %70, 1
  %72 = load i32, ptr %18, align 4
  %73 = sub nsw i32 %71, %72
  %74 = lshr i32 %73, 31
  store i32 %74, ptr %23, align 4
  %75 = load i32, ptr %21, align 4
  %76 = ashr i32 %75, 31
  store i32 %76, ptr %25, align 4
  %77 = load i32, ptr %25, align 4
  %78 = load i32, ptr %21, align 4
  %79 = sub nsw i32 %78, %77
  store i32 %79, ptr %21, align 4
  %80 = load i32, ptr %25, align 4
  %81 = load i32, ptr %23, align 4
  %82 = add nsw i32 %81, %80
  store i32 %82, ptr %23, align 4
  %83 = load i32, ptr %22, align 4
  %84 = add nsw i32 %83, 1
  %85 = load i32, ptr %19, align 4
  %86 = sub nsw i32 %84, %85
  %87 = ashr i32 %86, 31
  store i32 %87, ptr %24, align 4
  %88 = load i32, ptr %22, align 4
  %89 = ashr i32 %88, 31
  store i32 %89, ptr %25, align 4
  %90 = load i32, ptr %25, align 4
  %91 = load i32, ptr %22, align 4
  %92 = sub nsw i32 %91, %90
  store i32 %92, ptr %22, align 4
  %93 = load i32, ptr %25, align 4
  %94 = load i32, ptr %24, align 4
  %95 = sub nsw i32 %94, %93
  store i32 %95, ptr %24, align 4
  %96 = load i32, ptr %15, align 4
  %97 = load i32, ptr %24, align 4
  %98 = and i32 %97, %96
  store i32 %98, ptr %24, align 4
  %99 = load i32, ptr %16, align 4
  %100 = load i32, ptr %21, align 4
  %101 = add nsw i32 %100, %99
  store i32 %101, ptr %21, align 4
  %102 = load ptr, ptr %8, align 8
  %103 = getelementptr inbounds %struct.SurfaceDataRasInfo, ptr %102, i32 0, i32 1
  %104 = load ptr, ptr %103, align 8
  %105 = ptrtoint ptr %104 to i64
  %106 = load i32, ptr %22, align 4
  %107 = load i32, ptr %17, align 4
  %108 = add nsw i32 %106, %107
  %109 = sext i32 %108 to i64
  %110 = load i32, ptr %15, align 4
  %111 = sext i32 %110 to i64
  %112 = mul nsw i64 %109, %111
  %113 = add nsw i64 %105, %112
  %114 = inttoptr i64 %113 to ptr
  store ptr %114, ptr %26, align 8
  %115 = load ptr, ptr %26, align 8
  %116 = load i32, ptr %21, align 4
  %117 = sext i32 %116 to i64
  %118 = getelementptr inbounds i32, ptr %115, i64 %117
  %119 = load i32, ptr %118, align 4
  %120 = or i32 -16777216, %119
  %121 = load ptr, ptr %9, align 8
  %122 = getelementptr inbounds i32, ptr %121, i64 0
  store i32 %120, ptr %122, align 4
  %123 = load ptr, ptr %26, align 8
  %124 = load i32, ptr %21, align 4
  %125 = load i32, ptr %23, align 4
  %126 = add nsw i32 %124, %125
  %127 = sext i32 %126 to i64
  %128 = getelementptr inbounds i32, ptr %123, i64 %127
  %129 = load i32, ptr %128, align 4
  %130 = or i32 -16777216, %129
  %131 = load ptr, ptr %9, align 8
  %132 = getelementptr inbounds i32, ptr %131, i64 1
  store i32 %130, ptr %132, align 4
  %133 = load ptr, ptr %26, align 8
  %134 = ptrtoint ptr %133 to i64
  %135 = load i32, ptr %24, align 4
  %136 = sext i32 %135 to i64
  %137 = add nsw i64 %134, %136
  %138 = inttoptr i64 %137 to ptr
  store ptr %138, ptr %26, align 8
  %139 = load ptr, ptr %26, align 8
  %140 = load i32, ptr %21, align 4
  %141 = sext i32 %140 to i64
  %142 = getelementptr inbounds i32, ptr %139, i64 %141
  %143 = load i32, ptr %142, align 4
  %144 = or i32 -16777216, %143
  %145 = load ptr, ptr %9, align 8
  %146 = getelementptr inbounds i32, ptr %145, i64 2
  store i32 %144, ptr %146, align 4
  %147 = load ptr, ptr %26, align 8
  %148 = load i32, ptr %21, align 4
  %149 = load i32, ptr %23, align 4
  %150 = add nsw i32 %148, %149
  %151 = sext i32 %150 to i64
  %152 = getelementptr inbounds i32, ptr %147, i64 %151
  %153 = load i32, ptr %152, align 4
  %154 = or i32 -16777216, %153
  %155 = load ptr, ptr %9, align 8
  %156 = getelementptr inbounds i32, ptr %155, i64 3
  store i32 %154, ptr %156, align 4
  %157 = load ptr, ptr %9, align 8
  %158 = getelementptr inbounds i32, ptr %157, i64 4
  store ptr %158, ptr %9, align 8
  %159 = load i64, ptr %12, align 8
  %160 = load i64, ptr %11, align 8
  %161 = add nsw i64 %160, %159
  store i64 %161, ptr %11, align 8
  %162 = load i64, ptr %14, align 8
  %163 = load i64, ptr %13, align 8
  %164 = add nsw i64 %163, %162
  store i64 %164, ptr %13, align 8
  br label %59, !llvm.loop !57

165:                                              ; preds = %59
  ret void
}