; Function Attrs: nofree norecurse nosync nounwind memory(readwrite, inaccessiblemem: none) uwtable
define hidden void @IntRgbBilinearTransformHelper(ptr nocapture noundef readonly %0, ptr noundef writeonly %1, i32 noundef %2, i64 noundef %3, i64 noundef %4, i64 noundef %5, i64 noundef %6) #1 {
  %8 = getelementptr inbounds i8, ptr %0, i64 32
  %9 = load i32, ptr %8, align 8
  %10 = shl nsw i32 %2, 2
  %11 = sext i32 %10 to i64
  %12 = getelementptr inbounds i32, ptr %1, i64 %11
  %13 = load i32, ptr %0, align 8
  %14 = getelementptr inbounds i8, ptr %0, i64 4
  %15 = load i32, ptr %14, align 4
  %16 = icmp sgt i32 %2, 0
  br i1 %16, label %.lr.ph, label %._crit_edge

.lr.ph:                                           ; preds = %7
  %17 = add nsw i64 %5, -2147483648
  %18 = add nsw i64 %3, -2147483648
  %19 = getelementptr inbounds i8, ptr %0, i64 12
  %20 = load i32, ptr %19, align 4
  %21 = getelementptr inbounds i8, ptr %0, i64 8
  %22 = load i32, ptr %21, align 8
  %23 = add i32 %13, 1
  %.neg = sub i32 %23, %22
  %24 = add i32 %15, 1
  %.neg59 = sub i32 %24, %20
  %25 = getelementptr inbounds i8, ptr %0, i64 16
  %26 = sext i32 %9 to i64
  br label %27

27:                                               ; preds = %.lr.ph, %27
  %.065 = phi ptr [ %1, %.lr.ph ], [ %71, %27 ]
  %.05764 = phi i64 [ %18, %.lr.ph ], [ %72, %27 ]
  %.05863 = phi i64 [ %17, %.lr.ph ], [ %73, %27 ]
  %28 = lshr i64 %.05764, 32
  %29 = trunc nuw i64 %28 to i32
  %30 = lshr i64 %.05863, 32
  %31 = trunc nuw i64 %30 to i32
  %32 = add i32 %.neg, %29
  %33 = lshr i32 %32, 31
  %34 = ashr i32 %29, 31
  %35 = sub nsw i32 %29, %34
  %36 = add nsw i32 %33, %34
  %37 = add i32 %.neg59, %31
  %38 = ashr i32 %37, 31
  %.neg66 = lshr i32 %31, 31
  %39 = add nsw i32 %.neg66, %38
  %40 = and i32 %39, %9
  %41 = add nsw i32 %35, %13
  %42 = load ptr, ptr %25, align 8
  %43 = ptrtoint ptr %42 to i64
  %44 = add i32 %15, %31
  %45 = add i32 %44, %.neg66
  %46 = sext i32 %45 to i64
  %47 = mul nsw i64 %46, %26
  %48 = add nsw i64 %47, %43
  %49 = inttoptr i64 %48 to ptr
  %50 = sext i32 %41 to i64
  %51 = getelementptr inbounds i32, ptr %49, i64 %50
  %52 = load i32, ptr %51, align 4
  %53 = or i32 %52, -16777216
  store i32 %53, ptr %.065, align 4
  %54 = add nsw i32 %36, %41
  %55 = sext i32 %54 to i64
  %56 = getelementptr inbounds i32, ptr %49, i64 %55
  %57 = load i32, ptr %56, align 4
  %58 = or i32 %57, -16777216
  %59 = getelementptr inbounds i8, ptr %.065, i64 4
  store i32 %58, ptr %59, align 4
  %60 = sext i32 %40 to i64
  %61 = add nsw i64 %48, %60
  %62 = inttoptr i64 %61 to ptr
  %63 = getelementptr inbounds i32, ptr %62, i64 %50
  %64 = load i32, ptr %63, align 4
  %65 = or i32 %64, -16777216
  %66 = getelementptr inbounds i8, ptr %.065, i64 8
  store i32 %65, ptr %66, align 4
  %67 = getelementptr inbounds i32, ptr %62, i64 %55
  %68 = load i32, ptr %67, align 4
  %69 = or i32 %68, -16777216
  %70 = getelementptr inbounds i8, ptr %.065, i64 12
  store i32 %69, ptr %70, align 4
  %71 = getelementptr inbounds i8, ptr %.065, i64 16
  %72 = add nsw i64 %.05764, %4
  %73 = add nsw i64 %.05863, %6
  %74 = icmp ult ptr %71, %12
  br i1 %74, label %27, label %._crit_edge, !llvm.loop !57

._crit_edge:                                      ; preds = %27, %7
  ret void
}